; ModuleID = '17/262.c'
source_filename = "17/262.c"
target datalayout = "e-m:e-p270:32:32-p271:32:32-p272:64:64-i64:64-f80:128-n8:16:32:64-S128"
target triple = "x86_64-pc-linux-gnu"

@.str = private unnamed_addr constant [3 x i8] c"%c\00", align 1
@.str.1 = private unnamed_addr constant [4 x i8] c"%s\0A\00", align 1

; Function Attrs: noinline nounwind uwtable
define dso_local i32 @main() #0 {
  %1 = alloca i32, align 4
  %2 = alloca [200 x i8], align 16
  %3 = alloca [200 x i8], align 16
  %4 = alloca i32, align 4
  %5 = alloca i32, align 4
  %6 = alloca i32, align 4
  %7 = alloca i32, align 4
  %8 = alloca i8, align 1
  store i32 0, i32* %1, align 4
  store i32 0, i32* %4, align 4
  %9 = call i32 (i8*, ...) @__isoc99_scanf(i8* getelementptr inbounds ([3 x i8], [3 x i8]* @.str, i64 0, i64 0), i8* %8)
  br label %10

10:                                               ; preds = %186, %0
  %11 = load i8, i8* %8, align 1
  %12 = sext i8 %11 to i32
  %13 = icmp ne i32 %12, -1
  br i1 %13, label %14, label %188

14:                                               ; preds = %10
  store i32 0, i32* %4, align 4
  store i32 -1, i32* %6, align 4
  br label %15

15:                                               ; preds = %48, %14
  %16 = load i8, i8* %8, align 1
  %17 = sext i8 %16 to i32
  %18 = icmp ne i32 %17, 10
  br i1 %18, label %19, label %52

19:                                               ; preds = %15
  %20 = load i8, i8* %8, align 1
  %21 = load i32, i32* %4, align 4
  %22 = sext i32 %21 to i64
  %23 = getelementptr inbounds [200 x i8], [200 x i8]* %2, i64 0, i64 %22
  store i8 %20, i8* %23, align 1
  %24 = load i8, i8* %8, align 1
  %25 = sext i8 %24 to i32
  %26 = icmp sge i32 %25, 65
  br i1 %26, label %27, label %31

27:                                               ; preds = %19
  %28 = load i8, i8* %8, align 1
  %29 = sext i8 %28 to i32
  %30 = icmp sle i32 %29, 90
  br i1 %30, label %39, label %31

31:                                               ; preds = %27, %19
  %32 = load i8, i8* %8, align 1
  %33 = sext i8 %32 to i32
  %34 = icmp sge i32 %33, 97
  br i1 %34, label %35, label %43

35:                                               ; preds = %31
  %36 = load i8, i8* %8, align 1
  %37 = sext i8 %36 to i32
  %38 = icmp sle i32 %37, 122
  br i1 %38, label %39, label %43

39:                                               ; preds = %35, %27
  %40 = load i32, i32* %4, align 4
  %41 = sext i32 %40 to i64
  %42 = getelementptr inbounds [200 x i8], [200 x i8]* %3, i64 0, i64 %41
  store i8 32, i8* %42, align 1
  br label %48

43:                                               ; preds = %35, %31
  %44 = load i8, i8* %8, align 1
  %45 = load i32, i32* %4, align 4
  %46 = sext i32 %45 to i64
  %47 = getelementptr inbounds [200 x i8], [200 x i8]* %3, i64 0, i64 %46
  store i8 %44, i8* %47, align 1
  br label %48

48:                                               ; preds = %43, %39
  %49 = load i32, i32* %4, align 4
  %50 = add nsw i32 %49, 1
  store i32 %50, i32* %4, align 4
  %51 = call i32 (i8*, ...) @__isoc99_scanf(i8* getelementptr inbounds ([3 x i8], [3 x i8]* @.str, i64 0, i64 0), i8* %8)
  br label %15

52:                                               ; preds = %15
  %53 = load i32, i32* %4, align 4
  %54 = sext i32 %53 to i64
  %55 = getelementptr inbounds [200 x i8], [200 x i8]* %2, i64 0, i64 %54
  store i8 0, i8* %55, align 1
  %56 = load i32, i32* %4, align 4
  %57 = sext i32 %56 to i64
  %58 = getelementptr inbounds [200 x i8], [200 x i8]* %3, i64 0, i64 %57
  store i8 0, i8* %58, align 1
  %59 = getelementptr inbounds [200 x i8], [200 x i8]* %3, i64 0, i64 0
  %60 = call i64 @strlen(i8* %59) #3
  %61 = trunc i64 %60 to i32
  store i32 %61, i32* %5, align 4
  store i32 0, i32* %4, align 4
  store i32 0, i32* %7, align 4
  br label %62

62:                                               ; preds = %123, %92, %52
  %63 = load i32, i32* %4, align 4
  %64 = icmp sge i32 %63, 0
  br i1 %64, label %65, label %126

65:                                               ; preds = %62
  %66 = load i32, i32* %4, align 4
  %67 = sext i32 %66 to i64
  %68 = getelementptr inbounds [200 x i8], [200 x i8]* %3, i64 0, i64 %67
  %69 = load i8, i8* %68, align 1
  %70 = sext i8 %69 to i32
  %71 = icmp eq i32 %70, 40
  br i1 %71, label %72, label %74

72:                                               ; preds = %65
  %73 = load i32, i32* %4, align 4
  store i32 %73, i32* %6, align 4
  br label %74

74:                                               ; preds = %72, %65
  %75 = load i32, i32* %4, align 4
  %76 = sext i32 %75 to i64
  %77 = getelementptr inbounds [200 x i8], [200 x i8]* %3, i64 0, i64 %76
  %78 = load i8, i8* %77, align 1
  %79 = sext i8 %78 to i32
  %80 = icmp eq i32 %79, 32
  br i1 %80, label %81, label %95

81:                                               ; preds = %74
  %82 = load i32, i32* %4, align 4
  %83 = load i32, i32* %5, align 4
  %84 = sub nsw i32 %83, 1
  %85 = icmp eq i32 %82, %84
  br i1 %85, label %86, label %92

86:                                               ; preds = %81
  %87 = load i32, i32* %7, align 4
  %88 = icmp eq i32 %87, 1
  br i1 %88, label %89, label %90

89:                                               ; preds = %86
  store i32 0, i32* %7, align 4
  store i32 -1, i32* %4, align 4
  br label %91

90:                                               ; preds = %86
  br label %126

91:                                               ; preds = %89
  br label %92

92:                                               ; preds = %91, %81
  %93 = load i32, i32* %4, align 4
  %94 = add nsw i32 %93, 1
  store i32 %94, i32* %4, align 4
  br label %62

95:                                               ; preds = %74
  %96 = load i32, i32* %4, align 4
  %97 = sext i32 %96 to i64
  %98 = getelementptr inbounds [200 x i8], [200 x i8]* %3, i64 0, i64 %97
  %99 = load i8, i8* %98, align 1
  %100 = sext i8 %99 to i32
  %101 = icmp eq i32 %100, 41
  br i1 %101, label %102, label %112

102:                                              ; preds = %95
  %103 = load i32, i32* %6, align 4
  %104 = icmp sge i32 %103, 0
  br i1 %104, label %105, label %112

105:                                              ; preds = %102
  %106 = load i32, i32* %6, align 4
  %107 = sext i32 %106 to i64
  %108 = getelementptr inbounds [200 x i8], [200 x i8]* %3, i64 0, i64 %107
  store i8 32, i8* %108, align 1
  %109 = load i32, i32* %4, align 4
  %110 = sext i32 %109 to i64
  %111 = getelementptr inbounds [200 x i8], [200 x i8]* %3, i64 0, i64 %110
  store i8 32, i8* %111, align 1
  store i32 1, i32* %7, align 4
  store i32 -1, i32* %6, align 4
  br label %112

112:                                              ; preds = %105, %102, %95
  %113 = load i32, i32* %4, align 4
  %114 = load i32, i32* %5, align 4
  %115 = sub nsw i32 %114, 1
  %116 = icmp eq i32 %113, %115
  br i1 %116, label %117, label %123

117:                                              ; preds = %112
  %118 = load i32, i32* %7, align 4
  %119 = icmp eq i32 %118, 1
  br i1 %119, label %120, label %121

120:                                              ; preds = %117
  store i32 0, i32* %7, align 4
  store i32 -1, i32* %4, align 4
  store i32 -1, i32* %6, align 4
  br label %122

121:                                              ; preds = %117
  br label %126

122:                                              ; preds = %120
  br label %123

123:                                              ; preds = %122, %112
  %124 = load i32, i32* %4, align 4
  %125 = add nsw i32 %124, 1
  store i32 %125, i32* %4, align 4
  br label %62

126:                                              ; preds = %121, %90, %62
  store i32 0, i32* %4, align 4
  br label %127

127:                                              ; preds = %154, %126
  %128 = load i32, i32* %4, align 4
  %129 = load i32, i32* %5, align 4
  %130 = icmp slt i32 %128, %129
  br i1 %130, label %131, label %157

131:                                              ; preds = %127
  %132 = load i32, i32* %4, align 4
  %133 = sext i32 %132 to i64
  %134 = getelementptr inbounds [200 x i8], [200 x i8]* %3, i64 0, i64 %133
  %135 = load i8, i8* %134, align 1
  %136 = sext i8 %135 to i32
  %137 = icmp eq i32 %136, 40
  br i1 %137, label %138, label %142

138:                                              ; preds = %131
  %139 = load i32, i32* %4, align 4
  %140 = sext i32 %139 to i64
  %141 = getelementptr inbounds [200 x i8], [200 x i8]* %3, i64 0, i64 %140
  store i8 36, i8* %141, align 1
  br label %142

142:                                              ; preds = %138, %131
  %143 = load i32, i32* %4, align 4
  %144 = sext i32 %143 to i64
  %145 = getelementptr inbounds [200 x i8], [200 x i8]* %3, i64 0, i64 %144
  %146 = load i8, i8* %145, align 1
  %147 = sext i8 %146 to i32
  %148 = icmp eq i32 %147, 41
  br i1 %148, label %149, label %153

149:                                              ; preds = %142
  %150 = load i32, i32* %4, align 4
  %151 = sext i32 %150 to i64
  %152 = getelementptr inbounds [200 x i8], [200 x i8]* %3, i64 0, i64 %151
  store i8 63, i8* %152, align 1
  br label %153

153:                                              ; preds = %149, %142
  br label %154

154:                                              ; preds = %153
  %155 = load i32, i32* %4, align 4
  %156 = add nsw i32 %155, 1
  store i32 %156, i32* %4, align 4
  br label %127

157:                                              ; preds = %127
  %158 = getelementptr inbounds [200 x i8], [200 x i8]* %2, i64 0, i64 0
  %159 = call i32 (i8*, ...) @printf(i8* getelementptr inbounds ([4 x i8], [4 x i8]* @.str.1, i64 0, i64 0), i8* %158)
  %160 = getelementptr inbounds [200 x i8], [200 x i8]* %3, i64 0, i64 0
  %161 = call i32 (i8*, ...) @printf(i8* getelementptr inbounds ([4 x i8], [4 x i8]* @.str.1, i64 0, i64 0), i8* %160)
  %162 = call i32 (i8*, ...) @__isoc99_scanf(i8* getelementptr inbounds ([3 x i8], [3 x i8]* @.str, i64 0, i64 0), i8* %8)
  %163 = load i8, i8* %8, align 1
  %164 = sext i8 %163 to i32
  %165 = icmp sge i32 %164, 65
  br i1 %165, label %166, label %170

166:                                              ; preds = %157
  %167 = load i8, i8* %8, align 1
  %168 = sext i8 %167 to i32
  %169 = icmp sle i32 %168, 90
  br i1 %169, label %186, label %170

170:                                              ; preds = %166, %157
  %171 = load i8, i8* %8, align 1
  %172 = sext i8 %171 to i32
  %173 = icmp sge i32 %172, 97
  br i1 %173, label %174, label %178

174:                                              ; preds = %170
  %175 = load i8, i8* %8, align 1
  %176 = sext i8 %175 to i32
  %177 = icmp sle i32 %176, 122
  br i1 %177, label %186, label %178

178:                                              ; preds = %174, %170
  %179 = load i8, i8* %8, align 1
  %180 = sext i8 %179 to i32
  %181 = icmp eq i32 %180, 40
  br i1 %181, label %186, label %182

182:                                              ; preds = %178
  %183 = load i8, i8* %8, align 1
  %184 = sext i8 %183 to i32
  %185 = icmp eq i32 %184, 41
  br i1 %185, label %186, label %187

186:                                              ; preds = %182, %178, %174, %166
  br label %10

187:                                              ; preds = %182
  br label %188

188:                                              ; preds = %187, %10
  ret i32 0
}

declare dso_local i32 @__isoc99_scanf(i8*, ...) #1

; Function Attrs: nounwind readonly
declare dso_local i64 @strlen(i8*) #2

declare dso_local i32 @printf(i8*, ...) #1


!llvm.module.flags = !{!0}
!llvm.ident = !{!1}

!0 = !{i32 1, !"wchar_size", i32 4}
!1 = !{!"clang version 10.0.0-4ubuntu1 "}
